target datalayout = "e-m:e-p270:32:32-p271:32:32-p272:64:64-i64:64-i128:128-f80:128-n8:16:32:64-S128"
target triple = "x86_64-pc-linux-gnu"

%"class.OpenColorIO_v2_5dev::MatrixOpData::Offsets" = type { [4 x double] }

@constinit = private constant [4 x double] zeroinitializer, align 8

; Function Attrs: mustprogress nounwind uwtable
define hidden void @_ZN19OpenColorIO_v2_5dev12MatrixOpData7OffsetsC2Edddd(ptr noundef nonnull align 8 dereferenceable(32) %0, double noundef %1, double noundef %2, double noundef %3, double noundef %4) unnamed_addr #7 align 2 {
  %6 = alloca ptr, align 8
  %7 = alloca double, align 8
  %8 = alloca double, align 8
  %9 = alloca double, align 8
  %10 = alloca double, align 8
  store ptr %0, ptr %6, align 8, !tbaa !3
  store double %1, ptr %7, align 8, !tbaa !12
  store double %2, ptr %8, align 8, !tbaa !12
  store double %3, ptr %9, align 8, !tbaa !12
  store double %4, ptr %10, align 8, !tbaa !12
  %11 = load ptr, ptr %6, align 8
  %12 = getelementptr inbounds nuw %"class.OpenColorIO_v2_5dev::MatrixOpData::Offsets", ptr %11, i32 0, i32 0
  call void @llvm.memcpy.p0.p0.i64(ptr align 8 %12, ptr align 8 @constinit, i64 32, i1 false), !tbaa.struct !28
  %13 = load double, ptr %7, align 8, !tbaa !12
  %14 = getelementptr inbounds nuw %"class.OpenColorIO_v2_5dev::MatrixOpData::Offsets", ptr %11, i32 0, i32 0
  %15 = getelementptr inbounds [4 x double], ptr %14, i64 0, i64 0
  store double %13, ptr %15, align 8, !tbaa !12
  %16 = load double, ptr %8, align 8, !tbaa !12
  %17 = getelementptr inbounds nuw %"class.OpenColorIO_v2_5dev::MatrixOpData::Offsets", ptr %11, i32 0, i32 0
  %18 = getelementptr inbounds [4 x double], ptr %17, i64 0, i64 1
  store double %16, ptr %18, align 8, !tbaa !12
  %19 = load double, ptr %9, align 8, !tbaa !12
  %20 = getelementptr inbounds nuw %"class.OpenColorIO_v2_5dev::MatrixOpData::Offsets", ptr %11, i32 0, i32 0
  %21 = getelementptr inbounds [4 x double], ptr %20, i64 0, i64 2
  store double %19, ptr %21, align 8, !tbaa !12
  %22 = load double, ptr %10, align 8, !tbaa !12
  %23 = getelementptr inbounds nuw %"class.OpenColorIO_v2_5dev::MatrixOpData::Offsets", ptr %11, i32 0, i32 0
  %24 = getelementptr inbounds [4 x double], ptr %23, i64 0, i64 3
  store double %22, ptr %24, align 8, !tbaa !12
  ret void
}