; Function Attrs: mustprogress nofree norecurse nosync nounwind willreturn memory(argmem: write) uwtable
define hidden void @_ZN19OpenColorIO_v2_5dev12MatrixOpData7OffsetsC2Edddd(ptr noundef nonnull writeonly align 8 captures(none) dereferenceable(32) initializes((0, 32)) %0, double noundef %1, double noundef %2, double noundef %3, double noundef %4) unnamed_addr #8 align 2 {
  store double %1, ptr %0, align 8, !tbaa !7
  %6 = getelementptr inbounds nuw i8, ptr %0, i64 8
  store double %2, ptr %6, align 8, !tbaa !7
  %7 = getelementptr inbounds nuw i8, ptr %0, i64 16
  store double %3, ptr %7, align 8, !tbaa !7
  %8 = getelementptr inbounds nuw i8, ptr %0, i64 24
  store double %4, ptr %8, align 8, !tbaa !7
  ret void
}